target datalayout = "e-m:e-p270:32:32-p271:32:32-p272:64:64-i64:64-i128:128-f80:128-n8:16:32:64-S128"
target triple = "x86_64-pc-linux-gnu"

%struct.PLpgSQL_stmt_fetch = type { i32, i32, i32, ptr, i32, i32, i64, ptr, i8, i8 }

@.str.48 = private unnamed_addr constant [38 x i8] c"unexpected end of function definition\00", align 1
@.str.101 = private unnamed_addr constant [11 x i8] c"FROM or IN\00", align 1

; Function Attrs: nounwind uwtable
define internal ptr @read_sql_expression2(i32 noundef %0, i32 noundef %1, ptr noundef %2, ptr noundef %3, ptr noundef %4, ptr noundef %5, ptr noundef %6) #0 {
  %8 = alloca i32, align 4
  %9 = alloca i32, align 4
  %10 = alloca ptr, align 8
  %11 = alloca ptr, align 8
  %12 = alloca ptr, align 8
  %13 = alloca ptr, align 8
  %14 = alloca ptr, align 8
  store i32 %0, ptr %8, align 4
  store i32 %1, ptr %9, align 4
  store ptr %2, ptr %10, align 8
  store ptr %3, ptr %11, align 8
  store ptr %4, ptr %12, align 8
  store ptr %5, ptr %13, align 8
  store ptr %6, ptr %14, align 8
  %15 = load i32, ptr %8, align 4
  %16 = load i32, ptr %9, align 4
  %17 = load ptr, ptr %10, align 8
  %18 = load ptr, ptr %11, align 8
  %19 = load ptr, ptr %12, align 8
  %20 = load ptr, ptr %13, align 8
  %21 = load ptr, ptr %14, align 8
  %22 = call ptr @read_sql_construct(i32 noundef %15, i32 noundef %16, i32 noundef 0, ptr noundef %17, i32 noundef 2, i1 noundef zeroext true, i1 noundef zeroext true, ptr noundef null, ptr noundef %18, ptr noundef %19, ptr noundef %20, ptr noundef %21)
  ret ptr %22
}

; Function Attrs: nounwind uwtable
define internal void @complete_direction(ptr noundef %0, ptr noundef %1, ptr noundef %2, ptr noundef %3, ptr noundef %4) #0 {
  %6 = alloca ptr, align 8
  %7 = alloca ptr, align 8
  %8 = alloca ptr, align 8
  %9 = alloca ptr, align 8
  %10 = alloca ptr, align 8
  %11 = alloca i32, align 4
  %12 = alloca i32, align 4
  store ptr %0, ptr %6, align 8
  store ptr %1, ptr %7, align 8
  store ptr %2, ptr %8, align 8
  store ptr %3, ptr %9, align 8
  store ptr %4, ptr %10, align 8
  call void @llvm.lifetime.start.p0(i64 4, ptr %11) #10
  %13 = load ptr, ptr %8, align 8
  %14 = load ptr, ptr %9, align 8
  %15 = load ptr, ptr %10, align 8
  %16 = call i32 @plpgsql_yylex(ptr noundef %13, ptr noundef %14, ptr noundef %15)
  store i32 %16, ptr %11, align 4
  %17 = load i32, ptr %11, align 4
  %18 = icmp eq i32 %17, 0
  br i1 %18, label %19, label %22

19:                                               ; preds = %5
  %20 = load ptr, ptr %9, align 8
  %21 = load ptr, ptr %10, align 8
  call void @plpgsql_yyerror(ptr noundef %20, ptr noundef null, ptr noundef %21, ptr noundef @.str.48) #13
  unreachable

22:                                               ; preds = %5
  %23 = load i32, ptr %11, align 4
  %24 = icmp eq i32 %23, 324
  br i1 %24, label %28, label %25

25:                                               ; preds = %22
  %26 = load i32, ptr %11, align 4
  %27 = icmp eq i32 %26, 329
  br i1 %27, label %28, label %30

28:                                               ; preds = %25, %22
  %29 = load ptr, ptr %7, align 8
  store i8 0, ptr %29, align 1
  store i32 1, ptr %12, align 4
  br label %53

30:                                               ; preds = %25
  %31 = load i32, ptr %11, align 4
  %32 = icmp eq i32 %31, 282
  br i1 %32, label %33, label %39

33:                                               ; preds = %30
  %34 = load ptr, ptr %6, align 8
  %35 = getelementptr inbounds nuw %struct.PLpgSQL_stmt_fetch, ptr %34, i32 0, i32 6
  store i64 9223372036854775807, ptr %35, align 8
  %36 = load ptr, ptr %6, align 8
  %37 = getelementptr inbounds nuw %struct.PLpgSQL_stmt_fetch, ptr %36, i32 0, i32 9
  store i8 1, ptr %37, align 1
  %38 = load ptr, ptr %7, align 8
  store i8 1, ptr %38, align 1
  store i32 1, ptr %12, align 4
  br label %53

39:                                               ; preds = %30
  %40 = load i32, ptr %11, align 4
  %41 = load ptr, ptr %8, align 8
  %42 = load ptr, ptr %9, align 8
  %43 = load ptr, ptr %10, align 8
  call void @plpgsql_push_back_token(i32 noundef %40, ptr noundef %41, ptr noundef %42, ptr noundef %43)
  %44 = load ptr, ptr %8, align 8
  %45 = load ptr, ptr %9, align 8
  %46 = load ptr, ptr %10, align 8
  %47 = call ptr @read_sql_expression2(i32 noundef 324, i32 noundef 329, ptr noundef @.str.101, ptr noundef null, ptr noundef %44, ptr noundef %45, ptr noundef %46)
  %48 = load ptr, ptr %6, align 8
  %49 = getelementptr inbounds nuw %struct.PLpgSQL_stmt_fetch, ptr %48, i32 0, i32 7
  store ptr %47, ptr %49, align 8
  %50 = load ptr, ptr %6, align 8
  %51 = getelementptr inbounds nuw %struct.PLpgSQL_stmt_fetch, ptr %50, i32 0, i32 9
  store i8 1, ptr %51, align 1
  %52 = load ptr, ptr %7, align 8
  store i8 0, ptr %52, align 1
  store i32 0, ptr %12, align 4
  br label %53

53:                                               ; preds = %39, %33, %28
  call void @llvm.lifetime.end.p0(i64 4, ptr %11) #10
  %54 = load i32, ptr %12, align 4
  switch i32 %54, label %56 [
    i32 0, label %55
    i32 1, label %55
  ]

55:                                               ; preds = %53, %53
  ret void

56:                                               ; preds = %53
  unreachable
}