; Function Attrs: nounwind uwtable
define internal fastcc void @complete_direction(ptr noundef writeonly captures(none) %0, ptr noundef nonnull writeonly captures(none) %1, ptr noundef nonnull %2, ptr noundef nonnull %3, ptr noundef %4) unnamed_addr #0 {
  %6 = tail call i32 @plpgsql_yylex(ptr noundef nonnull %2, ptr noundef nonnull %3, ptr noundef %4) #12
  switch i32 %6, label %10 [
    i32 0, label %7
    i32 329, label %14
    i32 324, label %14
    i32 282, label %8
  ]

7:                                                ; preds = %5
  tail call void @plpgsql_yyerror(ptr noundef nonnull %3, ptr noundef null, ptr noundef %4, ptr noundef nonnull @.str.48) #15
  unreachable

8:                                                ; preds = %5
  %9 = getelementptr inbounds nuw i8, ptr %0, i64 32
  store i64 9223372036854775807, ptr %9, align 8
  br label %.sink.split

10:                                               ; preds = %5
  tail call void @plpgsql_push_back_token(i32 noundef %6, ptr noundef nonnull %2, ptr noundef nonnull %3, ptr noundef %4) #12
  %11 = tail call fastcc ptr @read_sql_construct(i32 noundef 324, i32 noundef 329, i32 noundef 0, ptr noundef nonnull @.str.101, i32 noundef 2, i1 noundef zeroext true, i1 noundef zeroext true, ptr noundef null, ptr noundef null, ptr noundef nonnull %2, ptr noundef nonnull %3, ptr noundef %4)
  %12 = getelementptr inbounds nuw i8, ptr %0, i64 40
  store ptr %11, ptr %12, align 8
  br label %.sink.split

.sink.split:                                      ; preds = %8, %10
  %.sink.ph = phi i8 [ 1, %8 ], [ 0, %10 ]
  %13 = getelementptr inbounds nuw i8, ptr %0, i64 49
  store i8 1, ptr %13, align 1
  br label %14

14:                                               ; preds = %.sink.split, %5, %5
  %.sink = phi i8 [ 0, %5 ], [ 0, %5 ], [ %.sink.ph, %.sink.split ]
  store i8 %.sink, ptr %1, align 1
  ret void
}